target datalayout = "e-m:e-p270:32:32-p271:32:32-p272:64:64-i64:64-i128:128-f80:128-n8:16:32:64-S128"
target triple = "x86_64-unknown-linux-gnu"

%"struct.(anonymous namespace)::instruction" = type { i32, ptr }
%"struct.(anonymous namespace)::choose" = type { %"struct.(anonymous namespace)::instruction", ptr }

@.str.17 = private unnamed_addr constant [2 x i8] c"\0A\00", align 1
@.str.23 = private unnamed_addr constant [5 x i8] c"    \00", align 1

; Function Attrs: mustprogress uwtable
define internal void @_ZNK12_GLOBAL__N_19code_tree16display_childrenERSoPNS_6chooseEj(ptr noundef nonnull align 8 dereferenceable(48) %this, ptr noundef nonnull align 8 dereferenceable(8) %out, ptr noundef %first_child, i32 noundef %indent) #5 align 2 {
entry:
  %this.addr = alloca ptr, align 8
  %out.addr = alloca ptr, align 8
  %first_child.addr = alloca ptr, align 8
  %indent.addr = alloca i32, align 4
  %curr = alloca ptr, align 8
  store ptr %this, ptr %this.addr, align 8
  store ptr %out, ptr %out.addr, align 8
  store ptr %first_child, ptr %first_child.addr, align 8
  store i32 %indent, ptr %indent.addr, align 4
  %this1 = load ptr, ptr %this.addr, align 8
  %0 = load ptr, ptr %first_child.addr, align 8
  store ptr %0, ptr %curr, align 8
  br label %while.cond

while.cond:                                       ; preds = %while.body, %entry
  %1 = load ptr, ptr %curr, align 8
  %cmp = icmp ne ptr %1, null
  br i1 %cmp, label %while.body, label %while.end

while.body:                                       ; preds = %while.cond
  %2 = load ptr, ptr %out.addr, align 8
  %3 = load ptr, ptr %curr, align 8
  %4 = load i32, ptr %indent.addr, align 4
  call void @_ZNK12_GLOBAL__N_19code_tree11display_seqERSoPNS_11instructionEj(ptr noundef nonnull align 8 dereferenceable(48) %this1, ptr noundef nonnull align 8 dereferenceable(8) %2, ptr noundef %3, i32 noundef %4)
  %5 = load ptr, ptr %curr, align 8
  %m_alt = getelementptr inbounds %"struct.(anonymous namespace)::choose", ptr %5, i32 0, i32 1
  %6 = load ptr, ptr %m_alt, align 8
  store ptr %6, ptr %curr, align 8
  br label %while.cond, !llvm.loop !138

while.end:                                        ; preds = %while.cond
  ret void
}

; Function Attrs: mustprogress uwtable
define internal void @_ZNK12_GLOBAL__N_19code_tree11display_seqERSoPNS_11instructionEj(ptr noundef nonnull align 8 dereferenceable(48) %this, ptr noundef nonnull align 8 dereferenceable(8) %out, ptr noundef %head, i32 noundef %indent) #5 align 2 {
entry:
  %this.addr = alloca ptr, align 8
  %out.addr = alloca ptr, align 8
  %head.addr = alloca ptr, align 8
  %indent.addr = alloca i32, align 4
  %i = alloca i32, align 4
  %curr = alloca ptr, align 8
  store ptr %this, ptr %this.addr, align 8
  store ptr %out, ptr %out.addr, align 8
  store ptr %head, ptr %head.addr, align 8
  store i32 %indent, ptr %indent.addr, align 4
  %this1 = load ptr, ptr %this.addr, align 8
  store i32 0, ptr %i, align 4
  br label %for.cond

for.cond:                                         ; preds = %for.inc, %entry
  %0 = load i32, ptr %i, align 4
  %1 = load i32, ptr %indent.addr, align 4
  %cmp = icmp ult i32 %0, %1
  br i1 %cmp, label %for.body, label %for.end

for.body:                                         ; preds = %for.cond
  %2 = load ptr, ptr %out.addr, align 8
  %call = call noundef nonnull align 8 dereferenceable(8) ptr @_ZStlsISt11char_traitsIcEERSt13basic_ostreamIcT_ES5_PKc(ptr noundef nonnull align 8 dereferenceable(8) %2, ptr noundef @.str.23)
  br label %for.inc

for.inc:                                          ; preds = %for.body
  %3 = load i32, ptr %i, align 4
  %inc = add i32 %3, 1
  store i32 %inc, ptr %i, align 4
  br label %for.cond, !llvm.loop !136

for.end:                                          ; preds = %for.cond
  %4 = load ptr, ptr %head.addr, align 8
  store ptr %4, ptr %curr, align 8
  %5 = load ptr, ptr %out.addr, align 8
  %6 = load ptr, ptr %curr, align 8
  %call2 = call noundef nonnull align 8 dereferenceable(8) ptr @_ZN12_GLOBAL__N_1lsERSoRKNS_11instructionE(ptr noundef nonnull align 8 dereferenceable(8) %5, ptr noundef nonnull align 8 dereferenceable(16) %6)
  %7 = load ptr, ptr %curr, align 8
  %m_next = getelementptr inbounds %"struct.(anonymous namespace)::instruction", ptr %7, i32 0, i32 1
  %8 = load ptr, ptr %m_next, align 8
  store ptr %8, ptr %curr, align 8
  br label %while.cond

while.cond:                                       ; preds = %while.body, %for.end
  %9 = load ptr, ptr %curr, align 8
  %cmp3 = icmp ne ptr %9, null
  br i1 %cmp3, label %land.lhs.true, label %land.end

land.lhs.true:                                    ; preds = %while.cond
  %10 = load ptr, ptr %curr, align 8
  %m_opcode = getelementptr inbounds %"struct.(anonymous namespace)::instruction", ptr %10, i32 0, i32 0
  %11 = load i32, ptr %m_opcode, align 8
  %cmp4 = icmp ne i32 %11, 26
  br i1 %cmp4, label %land.rhs, label %land.end

land.rhs:                                         ; preds = %land.lhs.true
  %12 = load ptr, ptr %curr, align 8
  %m_opcode5 = getelementptr inbounds %"struct.(anonymous namespace)::instruction", ptr %12, i32 0, i32 0
  %13 = load i32, ptr %m_opcode5, align 8
  %cmp6 = icmp ne i32 %13, 27
  br label %land.end

land.end:                                         ; preds = %land.rhs, %land.lhs.true, %while.cond
  %14 = phi i1 [ false, %land.lhs.true ], [ false, %while.cond ], [ %cmp6, %land.rhs ]
  br i1 %14, label %while.body, label %while.end

while.body:                                       ; preds = %land.end
  %15 = load ptr, ptr %out.addr, align 8
  %call7 = call noundef nonnull align 8 dereferenceable(8) ptr @_ZStlsISt11char_traitsIcEERSt13basic_ostreamIcT_ES5_PKc(ptr noundef nonnull align 8 dereferenceable(8) %15, ptr noundef @.str.17)
  %16 = load ptr, ptr %out.addr, align 8
  %17 = load ptr, ptr %curr, align 8
  %call8 = call noundef nonnull align 8 dereferenceable(8) ptr @_ZN12_GLOBAL__N_1lsERSoRKNS_11instructionE(ptr noundef nonnull align 8 dereferenceable(8) %16, ptr noundef nonnull align 8 dereferenceable(16) %17)
  %18 = load ptr, ptr %curr, align 8
  %m_next9 = getelementptr inbounds %"struct.(anonymous namespace)::instruction", ptr %18, i32 0, i32 1
  %19 = load ptr, ptr %m_next9, align 8
  store ptr %19, ptr %curr, align 8
  br label %while.cond, !llvm.loop !137

while.end:                                        ; preds = %land.end
  %20 = load ptr, ptr %out.addr, align 8
  %call10 = call noundef nonnull align 8 dereferenceable(8) ptr @_ZStlsISt11char_traitsIcEERSt13basic_ostreamIcT_ES5_PKc(ptr noundef nonnull align 8 dereferenceable(8) %20, ptr noundef @.str.17)
  %21 = load ptr, ptr %curr, align 8
  %cmp11 = icmp ne ptr %21, null
  br i1 %cmp11, label %if.then, label %if.end

if.then:                                          ; preds = %while.end
  %22 = load ptr, ptr %out.addr, align 8
  %23 = load ptr, ptr %curr, align 8
  %24 = load i32, ptr %indent.addr, align 4
  %add = add i32 %24, 1
  call void @_ZNK12_GLOBAL__N_19code_tree16display_childrenERSoPNS_6chooseEj(ptr noundef nonnull align 8 dereferenceable(48) %this1, ptr noundef nonnull align 8 dereferenceable(8) %22, ptr noundef %23, i32 noundef %add)
  br label %if.end

if.end:                                           ; preds = %if.then, %while.end
  ret void
}